target datalayout = "e-m:e-p270:32:32-p271:32:32-p272:64:64-i64:64-i128:128-f80:128-n8:16:32:64-S128"
target triple = "x86_64-pc-linux-gnu"

%struct.lean_object = type { i32, i32 }
%"struct.lean::mpz_object" = type { %struct.lean_object, %"class.lean::mpz" }
%"class.lean::mpz" = type { [1 x %struct.__mpz_struct] }
%struct.__mpz_struct = type { i32, i32, ptr }
%"struct.std::__atomic_base.38" = type { i32 }

; Function Attrs: alwaysinline mustprogress nounwind uwtable
define linkonce_odr hidden noundef i32 @_ZNSt13__atomic_baseIiE9fetch_subEiSt12memory_order(ptr noundef nonnull align 4 dereferenceable(4) %0, i32 noundef %1, i32 noundef %2) #11 comdat align 2 {
  %4 = alloca ptr, align 8
  %5 = alloca i32, align 4
  %6 = alloca i32, align 4
  %7 = alloca i32, align 4
  %8 = alloca i32, align 4
  store ptr %0, ptr %4, align 8, !tbaa !388
  store i32 %1, ptr %5, align 4, !tbaa !19
  store i32 %2, ptr %6, align 4, !tbaa !29
  %9 = load ptr, ptr %4, align 8
  %10 = getelementptr inbounds nuw %"struct.std::__atomic_base.38", ptr %9, i32 0, i32 0
  %11 = load i32, ptr %6, align 4, !tbaa !29
  %12 = load i32, ptr %5, align 4, !tbaa !19
  store i32 %12, ptr %7, align 4, !tbaa !19
  switch i32 %11, label %13 [
    i32 1, label %16
    i32 2, label %16
    i32 3, label %19
    i32 4, label %22
    i32 5, label %25
  ]

13:                                               ; preds = %3
  %14 = load i32, ptr %7, align 4
  %15 = atomicrmw sub ptr %10, i32 %14 monotonic, align 4
  store i32 %15, ptr %8, align 4
  br label %28

16:                                               ; preds = %3, %3
  %17 = load i32, ptr %7, align 4
  %18 = atomicrmw sub ptr %10, i32 %17 acquire, align 4
  store i32 %18, ptr %8, align 4
  br label %28

19:                                               ; preds = %3
  %20 = load i32, ptr %7, align 4
  %21 = atomicrmw sub ptr %10, i32 %20 release, align 4
  store i32 %21, ptr %8, align 4
  br label %28

22:                                               ; preds = %3
  %23 = load i32, ptr %7, align 4
  %24 = atomicrmw sub ptr %10, i32 %23 acq_rel, align 4
  store i32 %24, ptr %8, align 4
  br label %28

25:                                               ; preds = %3
  %26 = load i32, ptr %7, align 4
  %27 = atomicrmw sub ptr %10, i32 %26 seq_cst, align 4
  store i32 %27, ptr %8, align 4
  br label %28

28:                                               ; preds = %25, %22, %19, %16, %13
  %29 = load i32, ptr %8, align 4, !tbaa !19
  ret i32 %29
}

; Function Attrs: inlinehint mustprogress nounwind uwtable
define linkonce_odr noundef i32 @_ZSt25atomic_fetch_sub_explicitIiET_PSt6atomicIS0_ENS2_15difference_typeESt12memory_order(ptr noundef %0, i32 noundef %1, i32 noundef %2) #9 comdat {
  %4 = alloca ptr, align 8
  %5 = alloca i32, align 4
  %6 = alloca i32, align 4
  store ptr %0, ptr %4, align 8, !tbaa !27
  store i32 %1, ptr %5, align 4, !tbaa !19
  store i32 %2, ptr %6, align 4, !tbaa !29
  %7 = load ptr, ptr %4, align 8, !tbaa !27
  %8 = load i32, ptr %5, align 4, !tbaa !19
  %9 = load i32, ptr %6, align 4, !tbaa !29
  %10 = call noundef i32 @_ZNSt13__atomic_baseIiE9fetch_subEiSt12memory_order(ptr noundef nonnull align 4 dereferenceable(4) %7, i32 noundef %8, i32 noundef %9) #23
  ret i32 %10
}

; Function Attrs: inlinehint mustprogress nounwind uwtable
define internal noundef ptr @_ZL19lean_get_rc_mt_addrP11lean_object(ptr noundef %0) #9 {
  %2 = alloca ptr, align 8
  store ptr %0, ptr %2, align 8, !tbaa !3
  %3 = load ptr, ptr %2, align 8, !tbaa !3
  %4 = getelementptr inbounds nuw %struct.lean_object, ptr %3, i32 0, i32 0
  ret ptr %4
}

; Function Attrs: mustprogress uwtable
define void @lean_inc_ref_cold(ptr noundef %0) #0 {
  %2 = alloca ptr, align 8
  store ptr %0, ptr %2, align 8, !tbaa !3
  %3 = load ptr, ptr %2, align 8, !tbaa !3
  %4 = call noundef ptr @_ZL19lean_get_rc_mt_addrP11lean_object(ptr noundef %3)
  %5 = call noundef i32 @_ZSt25atomic_fetch_sub_explicitIiET_PSt6atomicIS0_ENS2_15difference_typeESt12memory_order(ptr noundef %4, i32 noundef 1, i32 noundef 0) #23
  ret void
}

; Function Attrs: inlinehint mustprogress nounwind uwtable
define internal noundef zeroext i1 @_ZL10lean_is_stP11lean_object(ptr noundef %0) #9 {
  %2 = alloca ptr, align 8
  store ptr %0, ptr %2, align 8, !tbaa !3
  %3 = load ptr, ptr %2, align 8, !tbaa !3
  %4 = getelementptr inbounds nuw %struct.lean_object, ptr %3, i32 0, i32 0
  %5 = load i32, ptr %4, align 4, !tbaa !31
  %6 = icmp sgt i32 %5, 0
  ret i1 %6
}

; Function Attrs: inlinehint mustprogress uwtable
define internal void @_ZL12lean_inc_refP11lean_object(ptr noundef %0) #3 {
  %2 = alloca ptr, align 8
  store ptr %0, ptr %2, align 8, !tbaa !3
  %3 = load ptr, ptr %2, align 8, !tbaa !3
  %4 = call noundef zeroext i1 @_ZL10lean_is_stP11lean_object(ptr noundef %3)
  %5 = zext i1 %4 to i64
  %6 = call i64 @llvm.expect.i64(i64 %5, i64 1)
  %7 = icmp ne i64 %6, 0
  br i1 %7, label %8, label %13

8:                                                ; preds = %1
  %9 = load ptr, ptr %2, align 8, !tbaa !3
  %10 = getelementptr inbounds nuw %struct.lean_object, ptr %9, i32 0, i32 0
  %11 = load i32, ptr %10, align 4, !tbaa !31
  %12 = add nsw i32 %11, 1
  store i32 %12, ptr %10, align 4, !tbaa !31
  br label %21

13:                                               ; preds = %1
  %14 = load ptr, ptr %2, align 8, !tbaa !3
  %15 = getelementptr inbounds nuw %struct.lean_object, ptr %14, i32 0, i32 0
  %16 = load i32, ptr %15, align 4, !tbaa !31
  %17 = icmp ne i32 %16, 0
  br i1 %17, label %18, label %20

18:                                               ; preds = %13
  %19 = load ptr, ptr %2, align 8, !tbaa !3
  call void @lean_inc_ref_cold(ptr noundef %19)
  br label %20

20:                                               ; preds = %18, %13
  br label %21

21:                                               ; preds = %20, %8
  ret void
}

; Function Attrs: inlinehint mustprogress nounwind uwtable
define linkonce_odr hidden noundef ptr @_ZN4lean6to_mpzEP11lean_object(ptr noundef %0) #9 comdat {
  %2 = alloca ptr, align 8
  store ptr %0, ptr %2, align 8, !tbaa !3
  %3 = load ptr, ptr %2, align 8, !tbaa !3
  ret ptr %3
}

; Function Attrs: inlinehint mustprogress nounwind uwtable
define internal noundef i64 @_ZL10lean_unboxP11lean_object(ptr noundef %0) #9 {
  %2 = alloca ptr, align 8
  store ptr %0, ptr %2, align 8, !tbaa !3
  %3 = load ptr, ptr %2, align 8, !tbaa !3
  %4 = ptrtoint ptr %3 to i64
  %5 = lshr i64 %4, 1
  ret i64 %5
}

; Function Attrs: mustprogress uwtable
define linkonce_odr hidden void @_ZN4lean3mpz4emodERKS0_i(ptr dead_on_unwind noalias writable sret(%"class.lean::mpz") align 8 %0, ptr noundef nonnull align 8 dereferenceable(16) %1, i32 noundef %2) #0 comdat align 2 personality ptr @__gxx_personality_v0 {
  %4 = alloca ptr, align 8
  %5 = alloca ptr, align 8
  %6 = alloca i32, align 4
  %7 = alloca %"class.lean::mpz", align 8
  %8 = alloca ptr, align 8
  %9 = alloca i32, align 4
  store ptr %0, ptr %4, align 8
  store ptr %1, ptr %5, align 8, !tbaa !115
  store i32 %2, ptr %6, align 4, !tbaa !19
  %10 = load ptr, ptr %5, align 8, !tbaa !115
  call void @llvm.lifetime.start.p0(i64 16, ptr %7) #23
  %11 = load i32, ptr %6, align 4, !tbaa !19
  call void @_ZN4lean3mpzC1Ei(ptr noundef nonnull align 8 dereferenceable(16) %7, i32 noundef %11)
  invoke void @_ZN4lean3mpz4emodERKS0_S2_(ptr dead_on_unwind writable sret(%"class.lean::mpz") align 8 %0, ptr noundef nonnull align 8 dereferenceable(16) %10, ptr noundef nonnull align 8 dereferenceable(16) %7)
          to label %12 unwind label %13

12:                                               ; preds = %3
  call void @_ZN4lean3mpzD1Ev(ptr noundef nonnull align 8 dereferenceable(16) %7) #23
  call void @llvm.lifetime.end.p0(i64 16, ptr %7) #23
  ret void

13:                                               ; preds = %3
  %14 = landingpad { ptr, i32 }
          cleanup
  %15 = extractvalue { ptr, i32 } %14, 0
  store ptr %15, ptr %8, align 8
  %16 = extractvalue { ptr, i32 } %14, 1
  store i32 %16, ptr %9, align 4
  call void @_ZN4lean3mpzD1Ev(ptr noundef nonnull align 8 dereferenceable(16) %7) #23
  call void @llvm.lifetime.end.p0(i64 16, ptr %7) #23
  br label %17

17:                                               ; preds = %13
  %18 = load ptr, ptr %8, align 8
  %19 = load i32, ptr %9, align 4
  %20 = insertvalue { ptr, i32 } poison, ptr %18, 0
  %21 = insertvalue { ptr, i32 } %20, i32 %19, 1
  resume { ptr, i32 } %21
}

; Function Attrs: alwaysinline mustprogress uwtable
define internal void @_ZL8lean_incP11lean_object(ptr noundef %0) #8 {
  %2 = alloca ptr, align 8
  store ptr %0, ptr %2, align 8, !tbaa !3
  %3 = load ptr, ptr %2, align 8, !tbaa !3
  %4 = call noundef zeroext i1 @_ZL14lean_is_scalarP11lean_object(ptr noundef %3)
  br i1 %4, label %7, label %5

5:                                                ; preds = %1
  %6 = load ptr, ptr %2, align 8, !tbaa !3
  call void @_ZL12lean_inc_refP11lean_object(ptr noundef %6)
  br label %7

7:                                                ; preds = %5, %1
  ret void
}

; Function Attrs: mustprogress uwtable
define linkonce_odr hidden void @_ZN4lean3mpz4emodEiRKS0_(ptr dead_on_unwind noalias writable sret(%"class.lean::mpz") align 8 %0, i32 noundef %1, ptr noundef nonnull align 8 dereferenceable(16) %2) #0 comdat align 2 personality ptr @__gxx_personality_v0 {
  %4 = alloca ptr, align 8
  %5 = alloca i32, align 4
  %6 = alloca ptr, align 8
  %7 = alloca %"class.lean::mpz", align 8
  %8 = alloca ptr, align 8
  %9 = alloca i32, align 4
  store ptr %0, ptr %4, align 8
  store i32 %1, ptr %5, align 4, !tbaa !19
  store ptr %2, ptr %6, align 8, !tbaa !115
  call void @llvm.lifetime.start.p0(i64 16, ptr %7) #23
  %10 = load i32, ptr %5, align 4, !tbaa !19
  call void @_ZN4lean3mpzC1Ei(ptr noundef nonnull align 8 dereferenceable(16) %7, i32 noundef %10)
  %11 = load ptr, ptr %6, align 8, !tbaa !115
  invoke void @_ZN4lean3mpz4emodERKS0_S2_(ptr dead_on_unwind writable sret(%"class.lean::mpz") align 8 %0, ptr noundef nonnull align 8 dereferenceable(16) %7, ptr noundef nonnull align 8 dereferenceable(16) %11)
          to label %12 unwind label %13

12:                                               ; preds = %3
  call void @_ZN4lean3mpzD1Ev(ptr noundef nonnull align 8 dereferenceable(16) %7) #23
  call void @llvm.lifetime.end.p0(i64 16, ptr %7) #23
  ret void

13:                                               ; preds = %3
  %14 = landingpad { ptr, i32 }
          cleanup
  %15 = extractvalue { ptr, i32 } %14, 0
  store ptr %15, ptr %8, align 8
  %16 = extractvalue { ptr, i32 } %14, 1
  store i32 %16, ptr %9, align 4
  call void @_ZN4lean3mpzD1Ev(ptr noundef nonnull align 8 dereferenceable(16) %7) #23
  call void @llvm.lifetime.end.p0(i64 16, ptr %7) #23
  br label %17

17:                                               ; preds = %13
  %18 = load ptr, ptr %8, align 8
  %19 = load i32, ptr %9, align 4
  %20 = insertvalue { ptr, i32 } poison, ptr %18, 0
  %21 = insertvalue { ptr, i32 } %20, i32 %19, 1
  resume { ptr, i32 } %21
}

; Function Attrs: inlinehint mustprogress nounwind uwtable
define linkonce_odr hidden noundef nonnull align 8 dereferenceable(16) ptr @_ZN4lean9mpz_valueEP11lean_object(ptr noundef %0) #9 comdat {
  %2 = alloca ptr, align 8
  store ptr %0, ptr %2, align 8, !tbaa !3
  %3 = load ptr, ptr %2, align 8, !tbaa !3
  %4 = call noundef ptr @_ZN4lean6to_mpzEP11lean_object(ptr noundef %3)
  %5 = getelementptr inbounds nuw %"struct.lean::mpz_object", ptr %4, i32 0, i32 1
  ret ptr %5
}

; Function Attrs: inlinehint mustprogress nounwind uwtable
define internal noundef i32 @_ZL18lean_scalar_to_intP11lean_object(ptr noundef %0) #9 {
  %2 = alloca ptr, align 8
  store ptr %0, ptr %2, align 8, !tbaa !3
  %3 = load ptr, ptr %2, align 8, !tbaa !3
  %4 = call noundef i64 @_ZL10lean_unboxP11lean_object(ptr noundef %3)
  %5 = trunc i64 %4 to i32
  ret i32 %5
}

; Function Attrs: alwaysinline mustprogress nounwind uwtable
define internal noundef zeroext i1 @_ZL14lean_is_scalarP11lean_object(ptr noundef %0) #11 {
  %2 = alloca ptr, align 8
  store ptr %0, ptr %2, align 8, !tbaa !3
  %3 = load ptr, ptr %2, align 8, !tbaa !3
  %4 = ptrtoint ptr %3 to i64
  %5 = and i64 %4, 1
  %6 = icmp eq i64 %5, 1
  ret i1 %6
}

; Function Attrs: mustprogress uwtable
define ptr @lean_int_big_emod(ptr noundef %0, ptr noundef %1) #0 personality ptr @__gxx_personality_v0 {
  %3 = alloca ptr, align 8
  %4 = alloca ptr, align 8
  %5 = alloca ptr, align 8
  %6 = alloca %"class.lean::mpz", align 8
  %7 = alloca ptr, align 8
  %8 = alloca i32, align 4
  %9 = alloca i32, align 4
  %10 = alloca i32, align 4
  %11 = alloca %"class.lean::mpz", align 8
  %12 = alloca %"class.lean::mpz", align 8
  store ptr %0, ptr %4, align 8, !tbaa !3
  store ptr %1, ptr %5, align 8, !tbaa !3
  %13 = load ptr, ptr %4, align 8, !tbaa !3
  %14 = call noundef zeroext i1 @_ZL14lean_is_scalarP11lean_object(ptr noundef %13)
  br i1 %14, label %15, label %26

15:                                               ; preds = %2
  call void @llvm.lifetime.start.p0(i64 16, ptr %6) #23
  %16 = load ptr, ptr %4, align 8, !tbaa !3
  %17 = call noundef i32 @_ZL18lean_scalar_to_intP11lean_object(ptr noundef %16)
  %18 = load ptr, ptr %5, align 8, !tbaa !3
  %19 = call noundef nonnull align 8 dereferenceable(16) ptr @_ZN4lean9mpz_valueEP11lean_object(ptr noundef %18)
  call void @_ZN4lean3mpz4emodEiRKS0_(ptr dead_on_unwind writable sret(%"class.lean::mpz") align 8 %6, i32 noundef %17, ptr noundef nonnull align 8 dereferenceable(16) %19)
  %20 = invoke noundef ptr @_ZN4leanL10mpz_to_intERKNS_3mpzE(ptr noundef nonnull align 8 dereferenceable(16) %6)
          to label %21 unwind label %22

21:                                               ; preds = %15
  store ptr %20, ptr %3, align 8
  call void @_ZN4lean3mpzD1Ev(ptr noundef nonnull align 8 dereferenceable(16) %6) #23
  call void @llvm.lifetime.end.p0(i64 16, ptr %6) #23
  br label %59

22:                                               ; preds = %15
  %23 = landingpad { ptr, i32 }
          cleanup
  %24 = extractvalue { ptr, i32 } %23, 0
  store ptr %24, ptr %7, align 8
  %25 = extractvalue { ptr, i32 } %23, 1
  store i32 %25, ptr %8, align 4
  call void @_ZN4lean3mpzD1Ev(ptr noundef nonnull align 8 dereferenceable(16) %6) #23
  call void @llvm.lifetime.end.p0(i64 16, ptr %6) #23
  br label %61

26:                                               ; preds = %2
  %27 = load ptr, ptr %5, align 8, !tbaa !3
  %28 = call noundef zeroext i1 @_ZL14lean_is_scalarP11lean_object(ptr noundef %27)
  br i1 %28, label %29, label %48

29:                                               ; preds = %26
  call void @llvm.lifetime.start.p0(i64 4, ptr %9) #23
  %30 = load ptr, ptr %5, align 8, !tbaa !3
  %31 = call noundef i32 @_ZL18lean_scalar_to_intP11lean_object(ptr noundef %30)
  store i32 %31, ptr %9, align 4, !tbaa !19
  %32 = load i32, ptr %9, align 4, !tbaa !19
  %33 = icmp eq i32 %32, 0
  br i1 %33, label %34, label %37

34:                                               ; preds = %29
  %35 = load ptr, ptr %4, align 8, !tbaa !3
  call void @_ZL8lean_incP11lean_object(ptr noundef %35)
  %36 = load ptr, ptr %4, align 8, !tbaa !3
  store ptr %36, ptr %3, align 8
  store i32 1, ptr %10, align 4
  br label %47

37:                                               ; preds = %29
  call void @llvm.lifetime.start.p0(i64 16, ptr %11) #23
  %38 = load ptr, ptr %4, align 8, !tbaa !3
  %39 = call noundef nonnull align 8 dereferenceable(16) ptr @_ZN4lean9mpz_valueEP11lean_object(ptr noundef %38)
  %40 = load i32, ptr %9, align 4, !tbaa !19
  call void @_ZN4lean3mpz4emodERKS0_i(ptr dead_on_unwind writable sret(%"class.lean::mpz") align 8 %11, ptr noundef nonnull align 8 dereferenceable(16) %39, i32 noundef %40)
  %41 = invoke noundef ptr @_ZN4leanL10mpz_to_intERKNS_3mpzE(ptr noundef nonnull align 8 dereferenceable(16) %11)
          to label %42 unwind label %43

42:                                               ; preds = %37
  store ptr %41, ptr %3, align 8
  call void @_ZN4lean3mpzD1Ev(ptr noundef nonnull align 8 dereferenceable(16) %11) #23
  call void @llvm.lifetime.end.p0(i64 16, ptr %11) #23
  store i32 1, ptr %10, align 4
  br label %47

43:                                               ; preds = %37
  %44 = landingpad { ptr, i32 }
          cleanup
  %45 = extractvalue { ptr, i32 } %44, 0
  store ptr %45, ptr %7, align 8
  %46 = extractvalue { ptr, i32 } %44, 1
  store i32 %46, ptr %8, align 4
  call void @_ZN4lean3mpzD1Ev(ptr noundef nonnull align 8 dereferenceable(16) %11) #23
  call void @llvm.lifetime.end.p0(i64 16, ptr %11) #23
  call void @llvm.lifetime.end.p0(i64 4, ptr %9) #23
  br label %61

47:                                               ; preds = %42, %34
  call void @llvm.lifetime.end.p0(i64 4, ptr %9) #23
  br label %59

48:                                               ; preds = %26
  call void @llvm.lifetime.start.p0(i64 16, ptr %12) #23
  %49 = load ptr, ptr %4, align 8, !tbaa !3
  %50 = call noundef nonnull align 8 dereferenceable(16) ptr @_ZN4lean9mpz_valueEP11lean_object(ptr noundef %49)
  %51 = load ptr, ptr %5, align 8, !tbaa !3
  %52 = call noundef nonnull align 8 dereferenceable(16) ptr @_ZN4lean9mpz_valueEP11lean_object(ptr noundef %51)
  call void @_ZN4lean3mpz4emodERKS0_S2_(ptr dead_on_unwind writable sret(%"class.lean::mpz") align 8 %12, ptr noundef nonnull align 8 dereferenceable(16) %50, ptr noundef nonnull align 8 dereferenceable(16) %52)
  %53 = invoke noundef ptr @_ZN4leanL10mpz_to_intERKNS_3mpzE(ptr noundef nonnull align 8 dereferenceable(16) %12)
          to label %54 unwind label %55

54:                                               ; preds = %48
  store ptr %53, ptr %3, align 8
  call void @_ZN4lean3mpzD1Ev(ptr noundef nonnull align 8 dereferenceable(16) %12) #23
  call void @llvm.lifetime.end.p0(i64 16, ptr %12) #23
  br label %59

55:                                               ; preds = %48
  %56 = landingpad { ptr, i32 }
          cleanup
  %57 = extractvalue { ptr, i32 } %56, 0
  store ptr %57, ptr %7, align 8
  %58 = extractvalue { ptr, i32 } %56, 1
  store i32 %58, ptr %8, align 4
  call void @_ZN4lean3mpzD1Ev(ptr noundef nonnull align 8 dereferenceable(16) %12) #23
  call void @llvm.lifetime.end.p0(i64 16, ptr %12) #23
  br label %61

59:                                               ; preds = %54, %47, %21
  %60 = load ptr, ptr %3, align 8
  ret ptr %60

61:                                               ; preds = %55, %43, %22
  %62 = load ptr, ptr %7, align 8
  %63 = load i32, ptr %8, align 4
  %64 = insertvalue { ptr, i32 } poison, ptr %62, 0
  %65 = insertvalue { ptr, i32 } %64, i32 %63, 1
  resume { ptr, i32 } %65
}