; Function Attrs: mustprogress uwtable
define noundef ptr @lean_int_big_emod(ptr noundef %0, ptr noundef %1) local_unnamed_addr #0 personality ptr @__gxx_personality_v0 {
  %3 = alloca %"class.lean::mpz", align 8
  %4 = alloca %"class.lean::mpz", align 8
  %5 = alloca %"class.lean::mpz", align 8
  %6 = alloca %"class.lean::mpz", align 8
  %7 = alloca %"class.lean::mpz", align 8
  %8 = ptrtoint ptr %0 to i64
  %9 = and i64 %8, 1
  %.not = icmp eq i64 %9, 0
  br i1 %.not, label %20, label %10

10:                                               ; preds = %2
  call void @llvm.lifetime.start.p0(i64 16, ptr nonnull %5) #40
  %11 = lshr i64 %8, 1
  %12 = trunc i64 %11 to i32
  %13 = getelementptr inbounds nuw i8, ptr %1, i64 8
  call void @llvm.lifetime.start.p0(i64 16, ptr nonnull %4) #40, !noalias !149
  call void @_ZN4lean3mpzC1Ei(ptr noundef nonnull align 8 dereferenceable(16) %4, i32 noundef %12), !noalias !149
  invoke void @_ZN4lean3mpz4emodERKS0_S2_(ptr dead_on_unwind nonnull writable sret(%"class.lean::mpz") align 8 %5, ptr noundef nonnull align 8 dereferenceable(16) %4, ptr noundef nonnull align 8 dereferenceable(16) %13)
          to label %_ZN4lean3mpz4emodEiRKS0_.exit unwind label %14

common.resume:                                    ; preds = %18, %40, %47, %36, %14
  %common.resume.op = phi { ptr, i32 } [ %15, %14 ], [ %37, %36 ], [ %19, %18 ], [ %41, %40 ], [ %48, %47 ]
  resume { ptr, i32 } %common.resume.op

14:                                               ; preds = %10
  %15 = landingpad { ptr, i32 }
          cleanup
  call void @_ZN4lean3mpzD1Ev(ptr noundef nonnull align 8 dereferenceable(16) %4) #40
  call void @llvm.lifetime.end.p0(i64 16, ptr nonnull %4) #40, !noalias !149
  br label %common.resume

_ZN4lean3mpz4emodEiRKS0_.exit:                    ; preds = %10
  call void @_ZN4lean3mpzD1Ev(ptr noundef nonnull align 8 dereferenceable(16) %4) #40
  call void @llvm.lifetime.end.p0(i64 16, ptr nonnull %4) #40, !noalias !149
  %16 = invoke fastcc noundef ptr @_ZN4leanL10mpz_to_intERKNS_3mpzE(ptr noundef nonnull align 8 dereferenceable(16) %5)
          to label %17 unwind label %18

17:                                               ; preds = %_ZN4lean3mpz4emodEiRKS0_.exit
  call void @_ZN4lean3mpzD1Ev(ptr noundef nonnull align 8 dereferenceable(16) %5) #40
  call void @llvm.lifetime.end.p0(i64 16, ptr nonnull %5) #40
  br label %_ZL8lean_incP11lean_object.exit

18:                                               ; preds = %_ZN4lean3mpz4emodEiRKS0_.exit
  %19 = landingpad { ptr, i32 }
          cleanup
  call void @_ZN4lean3mpzD1Ev(ptr noundef nonnull align 8 dereferenceable(16) %5) #40
  call void @llvm.lifetime.end.p0(i64 16, ptr nonnull %5) #40
  br label %common.resume

20:                                               ; preds = %2
  %21 = ptrtoint ptr %1 to i64
  %22 = and i64 %21, 1
  %.not18 = icmp eq i64 %22, 0
  br i1 %.not18, label %42, label %23

23:                                               ; preds = %20
  %24 = lshr i64 %21, 1
  %25 = trunc i64 %24 to i32
  %26 = icmp eq i32 %25, 0
  br i1 %26, label %27, label %34

27:                                               ; preds = %23
  %.val.i = load i32, ptr %0, align 4, !tbaa !23
  %28 = icmp sgt i32 %.val.i, 0
  br i1 %28, label %29, label %31, !prof !25

29:                                               ; preds = %27
  %30 = add nuw nsw i32 %.val.i, 1
  store i32 %30, ptr %0, align 4, !tbaa !23
  br label %_ZL8lean_incP11lean_object.exit

31:                                               ; preds = %27
  %.not.i = icmp eq i32 %.val.i, 0
  br i1 %.not.i, label %_ZL8lean_incP11lean_object.exit, label %32

32:                                               ; preds = %31
  %33 = atomicrmw sub ptr %0, i32 1 monotonic, align 4
  br label %_ZL8lean_incP11lean_object.exit

34:                                               ; preds = %23
  call void @llvm.lifetime.start.p0(i64 16, ptr nonnull %6) #40
  %35 = getelementptr inbounds nuw i8, ptr %0, i64 8
  call void @llvm.lifetime.start.p0(i64 16, ptr nonnull %3) #40, !noalias !152
  call void @_ZN4lean3mpzC1Ei(ptr noundef nonnull align 8 dereferenceable(16) %3, i32 noundef %25), !noalias !152
  invoke void @_ZN4lean3mpz4emodERKS0_S2_(ptr dead_on_unwind nonnull writable sret(%"class.lean::mpz") align 8 %6, ptr noundef nonnull align 8 dereferenceable(16) %35, ptr noundef nonnull align 8 dereferenceable(16) %3)
          to label %_ZN4lean3mpz4emodERKS0_i.exit unwind label %36

36:                                               ; preds = %34
  %37 = landingpad { ptr, i32 }
          cleanup
  call void @_ZN4lean3mpzD1Ev(ptr noundef nonnull align 8 dereferenceable(16) %3) #40
  call void @llvm.lifetime.end.p0(i64 16, ptr nonnull %3) #40, !noalias !152
  br label %common.resume

_ZN4lean3mpz4emodERKS0_i.exit:                    ; preds = %34
  call void @_ZN4lean3mpzD1Ev(ptr noundef nonnull align 8 dereferenceable(16) %3) #40
  call void @llvm.lifetime.end.p0(i64 16, ptr nonnull %3) #40, !noalias !152
  %38 = invoke fastcc noundef ptr @_ZN4leanL10mpz_to_intERKNS_3mpzE(ptr noundef nonnull align 8 dereferenceable(16) %6)
          to label %39 unwind label %40

39:                                               ; preds = %_ZN4lean3mpz4emodERKS0_i.exit
  call void @_ZN4lean3mpzD1Ev(ptr noundef nonnull align 8 dereferenceable(16) %6) #40
  call void @llvm.lifetime.end.p0(i64 16, ptr nonnull %6) #40
  br label %_ZL8lean_incP11lean_object.exit

40:                                               ; preds = %_ZN4lean3mpz4emodERKS0_i.exit
  %41 = landingpad { ptr, i32 }
          cleanup
  call void @_ZN4lean3mpzD1Ev(ptr noundef nonnull align 8 dereferenceable(16) %6) #40
  call void @llvm.lifetime.end.p0(i64 16, ptr nonnull %6) #40
  br label %common.resume

42:                                               ; preds = %20
  call void @llvm.lifetime.start.p0(i64 16, ptr nonnull %7) #40
  %43 = getelementptr inbounds nuw i8, ptr %0, i64 8
  %44 = getelementptr inbounds nuw i8, ptr %1, i64 8
  call void @_ZN4lean3mpz4emodERKS0_S2_(ptr dead_on_unwind nonnull writable sret(%"class.lean::mpz") align 8 %7, ptr noundef nonnull align 8 dereferenceable(16) %43, ptr noundef nonnull align 8 dereferenceable(16) %44)
  %45 = invoke fastcc noundef ptr @_ZN4leanL10mpz_to_intERKNS_3mpzE(ptr noundef nonnull align 8 dereferenceable(16) %7)
          to label %46 unwind label %47

46:                                               ; preds = %42
  call void @_ZN4lean3mpzD1Ev(ptr noundef nonnull align 8 dereferenceable(16) %7) #40
  call void @llvm.lifetime.end.p0(i64 16, ptr nonnull %7) #40
  br label %_ZL8lean_incP11lean_object.exit

47:                                               ; preds = %42
  %48 = landingpad { ptr, i32 }
          cleanup
  call void @_ZN4lean3mpzD1Ev(ptr noundef nonnull align 8 dereferenceable(16) %7) #40
  call void @llvm.lifetime.end.p0(i64 16, ptr nonnull %7) #40
  br label %common.resume

_ZL8lean_incP11lean_object.exit:                  ; preds = %29, %31, %32, %39, %46, %17
  %.0 = phi ptr [ %16, %17 ], [ %45, %46 ], [ %38, %39 ], [ %0, %32 ], [ %0, %31 ], [ %0, %29 ]
  ret ptr %.0
}